target datalayout = "e-m:e-p270:32:32-p271:32:32-p272:64:64-i64:64-i128:128-f80:128-n8:16:32:64-S128"
target triple = "x86_64-pc-linux-gnu"

@OnigUnicodeFolds1 = external global [0 x i32], align 4

; Function Attrs: inlinehint nounwind uwtable
define internal i32 @hash(ptr noundef %0) #2 {
  %2 = alloca ptr, align 8
  store ptr %0, ptr %2, align 8, !tbaa !4
  %3 = load ptr, ptr %2, align 8, !tbaa !4
  %4 = call i32 @onig_codes_byte_at(ptr noundef %3, i32 noundef 2)
  %5 = trunc i32 %4 to i8
  %6 = zext i8 %5 to i32
  %7 = add nsw i32 %6, 3
  %8 = sext i32 %7 to i64
  %9 = getelementptr inbounds [259 x i16], ptr @hash.asso_values, i64 0, i64 %8
  %10 = load i16, ptr %9, align 2, !tbaa !11
  %11 = zext i16 %10 to i32
  %12 = load ptr, ptr %2, align 8, !tbaa !4
  %13 = call i32 @onig_codes_byte_at(ptr noundef %12, i32 noundef 1)
  %14 = trunc i32 %13 to i8
  %15 = zext i8 %14 to i64
  %16 = getelementptr inbounds nuw [259 x i16], ptr @hash.asso_values, i64 0, i64 %15
  %17 = load i16, ptr %16, align 2, !tbaa !11
  %18 = zext i16 %17 to i32
  %19 = add nsw i32 %11, %18
  %20 = load ptr, ptr %2, align 8, !tbaa !4
  %21 = call i32 @onig_codes_byte_at(ptr noundef %20, i32 noundef 0)
  %22 = trunc i32 %21 to i8
  %23 = zext i8 %22 to i64
  %24 = getelementptr inbounds nuw [259 x i16], ptr @hash.asso_values, i64 0, i64 %23
  %25 = load i16, ptr %24, align 2, !tbaa !11
  %26 = zext i16 %25 to i32
  %27 = add nsw i32 %19, %26
  ret i32 %27
}

; Function Attrs: nounwind uwtable
define dso_local i32 @onigenc_unicode_fold1_key(ptr noundef %0) #0 {
  %2 = alloca i32, align 4
  %3 = alloca ptr, align 8
  %4 = alloca i32, align 4
  %5 = alloca i32, align 4
  %6 = alloca i32, align 4
  store ptr %0, ptr %3, align 8, !tbaa !4
  call void @llvm.lifetime.start.p0(i64 4, ptr %4) #4
  %7 = load ptr, ptr %3, align 8, !tbaa !4
  %8 = call i32 @hash(ptr noundef %7)
  store i32 %8, ptr %4, align 4, !tbaa !9
  %9 = load i32, ptr %4, align 4, !tbaa !9
  %10 = icmp sle i32 %9, 1868
  br i1 %10, label %11, label %32

11:                                               ; preds = %1
  call void @llvm.lifetime.start.p0(i64 4, ptr %5) #4
  %12 = load i32, ptr %4, align 4, !tbaa !9
  %13 = sext i32 %12 to i64
  %14 = getelementptr inbounds [1869 x i16], ptr @onigenc_unicode_fold1_key.wordlist, i64 0, i64 %13
  %15 = load i16, ptr %14, align 2, !tbaa !11
  %16 = sext i16 %15 to i32
  store i32 %16, ptr %5, align 4, !tbaa !9
  %17 = load i32, ptr %5, align 4, !tbaa !9
  %18 = icmp sge i32 %17, 0
  br i1 %18, label %19, label %28

19:                                               ; preds = %11
  %20 = load ptr, ptr %3, align 8, !tbaa !4
  %21 = load i32, ptr %5, align 4, !tbaa !9
  %22 = sext i32 %21 to i64
  %23 = getelementptr inbounds i32, ptr @OnigUnicodeFolds1, i64 %22
  %24 = call i32 @onig_codes_cmp(ptr noundef %20, ptr noundef %23, i32 noundef 1)
  %25 = icmp eq i32 %24, 0
  br i1 %25, label %26, label %28

26:                                               ; preds = %19
  %27 = load i32, ptr %5, align 4, !tbaa !9
  store i32 %27, ptr %2, align 4
  store i32 1, ptr %6, align 4
  br label %29

28:                                               ; preds = %19, %11
  store i32 0, ptr %6, align 4
  br label %29

29:                                               ; preds = %28, %26
  call void @llvm.lifetime.end.p0(i64 4, ptr %5) #4
  %30 = load i32, ptr %6, align 4
  switch i32 %30, label %33 [
    i32 0, label %31
  ]

31:                                               ; preds = %29
  br label %32

32:                                               ; preds = %31, %1
  store i32 0, ptr %6, align 4
  br label %33

33:                                               ; preds = %32, %29
  call void @llvm.lifetime.end.p0(i64 4, ptr %4) #4
  %34 = load i32, ptr %6, align 4
  switch i32 %34, label %38 [
    i32 0, label %35
    i32 1, label %36
  ]

35:                                               ; preds = %33
  store i32 -1, ptr %2, align 4
  br label %36

36:                                               ; preds = %35, %33
  %37 = load i32, ptr %2, align 4
  ret i32 %37

38:                                               ; preds = %33
  unreachable
}