; Function Attrs: nounwind uwtable
define dso_local range(i32 -1, 32768) i32 @onigenc_unicode_fold1_key(ptr noundef %0) local_unnamed_addr #0 {
  %2 = tail call i32 @onig_codes_byte_at(ptr noundef %0, i32 noundef 2) #2
  %3 = and i32 %2, 255
  %4 = add nuw nsw i32 %3, 3
  %5 = zext nneg i32 %4 to i64
  %6 = getelementptr inbounds nuw [259 x i16], ptr @hash.asso_values, i64 0, i64 %5
  %7 = load i16, ptr %6, align 2, !tbaa !4
  %8 = zext i16 %7 to i32
  %9 = tail call i32 @onig_codes_byte_at(ptr noundef %0, i32 noundef 1) #2
  %10 = and i32 %9, 255
  %11 = zext nneg i32 %10 to i64
  %12 = getelementptr inbounds nuw [259 x i16], ptr @hash.asso_values, i64 0, i64 %11
  %13 = load i16, ptr %12, align 2, !tbaa !4
  %14 = zext i16 %13 to i32
  %15 = add nuw nsw i32 %14, %8
  %16 = tail call i32 @onig_codes_byte_at(ptr noundef %0, i32 noundef 0) #2
  %17 = and i32 %16, 255
  %18 = zext nneg i32 %17 to i64
  %19 = getelementptr inbounds nuw [259 x i16], ptr @hash.asso_values, i64 0, i64 %18
  %20 = load i16, ptr %19, align 2, !tbaa !4
  %21 = zext i16 %20 to i32
  %22 = add nuw nsw i32 %15, %21
  %23 = icmp samesign ult i32 %22, 1869
  br i1 %23, label %24, label %35

24:                                               ; preds = %1
  %25 = zext nneg i32 %22 to i64
  %26 = getelementptr inbounds nuw [1869 x i16], ptr @onigenc_unicode_fold1_key.wordlist, i64 0, i64 %25
  %27 = load i16, ptr %26, align 2, !tbaa !4
  %28 = icmp sgt i16 %27, -1
  br i1 %28, label %29, label %.critedge

29:                                               ; preds = %24
  %30 = zext nneg i16 %27 to i32
  %31 = zext nneg i16 %27 to i64
  %32 = getelementptr inbounds nuw i32, ptr @OnigUnicodeFolds1, i64 %31
  %33 = tail call i32 @onig_codes_cmp(ptr noundef %0, ptr noundef nonnull %32, i32 noundef 1) #2
  %34 = icmp eq i32 %33, 0
  br i1 %34, label %35, label %.critedge

.critedge:                                        ; preds = %29, %24
  br label %35

35:                                               ; preds = %1, %.critedge, %29
  %36 = phi i32 [ %30, %29 ], [ -1, %.critedge ], [ -1, %1 ]
  ret i32 %36
}